; Function Attrs: nounwind uwtable
define internal void @_ZThn56_N4node4heap12_GLOBAL__N_118HeapSnapshotStreamD0Ev(ptr noundef %this) unnamed_addr #16 align 2 {
entry:
  %0 = getelementptr inbounds i8, ptr %this, i64 -56
  store ptr getelementptr inbounds ({ [30 x ptr], [20 x ptr], [8 x ptr] }, ptr @_ZTVN4node4heap12_GLOBAL__N_118HeapSnapshotStreamE, i64 0, i32 0, i64 2), ptr %0, align 8
  store ptr getelementptr inbounds ({ [30 x ptr], [20 x ptr], [8 x ptr] }, ptr @_ZTVN4node4heap12_GLOBAL__N_118HeapSnapshotStreamE, i64 0, i32 1, i64 2), ptr %this, align 8
  %add.ptr2.i.i = getelementptr inbounds i8, ptr %this, i64 64
  store ptr getelementptr inbounds ({ [30 x ptr], [20 x ptr], [8 x ptr] }, ptr @_ZTVN4node4heap12_GLOBAL__N_118HeapSnapshotStreamE, i64 0, i32 2, i64 2), ptr %add.ptr2.i.i, align 8
  %snapshot_.i.i = getelementptr inbounds i8, ptr %this, i64 72
  %1 = load ptr, ptr %snapshot_.i.i, align 8
  %cmp.not.i.i.i = icmp eq ptr %1, null
  br i1 %cmp.not.i.i.i, label %_ZN4node4heap12_GLOBAL__N_118HeapSnapshotStreamD0Ev.exit, label %if.then.i.i.i

if.then.i.i.i:                                    ; preds = %entry
  tail call void @_ZN2v812HeapSnapshot6DeleteEv(ptr noundef nonnull align 1 dereferenceable(1) %1) #22
  br label %_ZN4node4heap12_GLOBAL__N_118HeapSnapshotStreamD0Ev.exit

_ZN4node4heap12_GLOBAL__N_118HeapSnapshotStreamD0Ev.exit: ; preds = %entry, %if.then.i.i.i
  store ptr null, ptr %snapshot_.i.i, align 8
  store ptr getelementptr inbounds ({ [20 x ptr] }, ptr @_ZTVN4node10StreamBaseE, i64 0, i32 0, i64 2), ptr %this, align 8
  %default_listener_.i.i.i = getelementptr inbounds i8, ptr %this, i64 40
  tail call void @_ZN4node14StreamListenerD2Ev(ptr noundef nonnull align 8 dereferenceable(24) %default_listener_.i.i.i) #22
  tail call void @_ZN4node14StreamResourceD2Ev(ptr noundef nonnull align 8 dereferenceable(32) %this) #22
  tail call void @_ZN4node9AsyncWrapD2Ev(ptr noundef nonnull align 8 dereferenceable(56) %0) #22
  tail call void @_ZdlPv(ptr noundef nonnull %0) #24
  ret void
}